; Function Attrs: mustprogress uwtable
define hidden void @_ZN15inv_var_shifterclEP4exprjR7obj_refIS0_11ast_managerE(ptr noundef nonnull align 8 dereferenceable(148) %this, ptr noundef %t, i32 noundef %shift, ptr nocapture noundef nonnull align 8 dereferenceable(16) %r) local_unnamed_addr #3 align 2 {
entry:
  %m_kind.i.i.i = getelementptr inbounds i8, ptr %t, i64 4
  %bf.load.i.i.i = load i32, ptr %m_kind.i.i.i, align 4
  %bf.clear.i.i.i = and i32 %bf.load.i.i.i, 65535
  %cmp.i.i = icmp eq i32 %bf.clear.i.i.i, 0
  br i1 %cmp.i.i, label %_Z9is_groundPK4expr.exit, label %if.end

_Z9is_groundPK4expr.exit:                         ; preds = %entry
  %m_num_args.i.i.i = getelementptr inbounds i8, ptr %t, i64 24
  %0 = load i32, ptr %m_num_args.i.i.i, align 8
  %cmp.i.i.i = icmp eq i32 %0, 0
  %m_args.i.i.i = getelementptr inbounds i8, ptr %t, i64 32
  %idx.ext.i.i.i = zext i32 %0 to i64
  %add.ptr.i.i.i = getelementptr inbounds ptr, ptr %m_args.i.i.i, i64 %idx.ext.i.i.i
  %cond.i.i.i = select i1 %cmp.i.i.i, ptr @_ZN3app16g_constant_flagsE, ptr %add.ptr.i.i.i
  %bf.load.i.i = load i32, ptr %cond.i.i.i, align 4
  %1 = and i32 %bf.load.i.i, 65536
  %tobool.i.i.not = icmp eq i32 %1, 0
  br i1 %tobool.i.i.not, label %if.end, label %if.end.i

if.end.i:                                         ; preds = %_Z9is_groundPK4expr.exit
  %m_ref_count.i.i.i = getelementptr inbounds i8, ptr %t, i64 8
  %2 = load i32, ptr %m_ref_count.i.i.i, align 4
  %inc.i.i.i = add i32 %2, 1
  store i32 %inc.i.i.i, ptr %m_ref_count.i.i.i, align 4
  %3 = load ptr, ptr %r, align 8
  %tobool.not.i3.i = icmp eq ptr %3, null
  br i1 %tobool.not.i3.i, label %_ZN7obj_refI4expr11ast_managerEaSEPS0_.exit, label %if.then.i.i.i

if.then.i.i.i:                                    ; preds = %if.end.i
  %m_manager.i.i = getelementptr inbounds i8, ptr %r, i64 8
  %4 = load ptr, ptr %m_manager.i.i, align 8
  %m_ref_count.i.i.i.i = getelementptr inbounds i8, ptr %3, i64 8
  %5 = load i32, ptr %m_ref_count.i.i.i.i, align 4
  %dec.i.i.i.i = add i32 %5, -1
  store i32 %dec.i.i.i.i, ptr %m_ref_count.i.i.i.i, align 4
  %cmp.i.i.i4 = icmp eq i32 %dec.i.i.i.i, 0
  br i1 %cmp.i.i.i4, label %if.then2.i.i.i, label %_ZN7obj_refI4expr11ast_managerEaSEPS0_.exit

if.then2.i.i.i:                                   ; preds = %if.then.i.i.i
  tail call void @_ZN11ast_manager11delete_nodeEP3ast(ptr noundef nonnull align 8 dereferenceable(976) %4, ptr noundef nonnull %3)
  br label %_ZN7obj_refI4expr11ast_managerEaSEPS0_.exit

_ZN7obj_refI4expr11ast_managerEaSEPS0_.exit:      ; preds = %if.end.i, %if.then.i.i.i, %if.then2.i.i.i
  store ptr %t, ptr %r, align 8
  br label %return

if.end:                                           ; preds = %entry, %_Z9is_groundPK4expr.exit
  %m_cache_stack.i = getelementptr inbounds i8, ptr %this, i64 24
  %6 = load ptr, ptr %m_cache_stack.i, align 8
  %7 = load ptr, ptr %6, align 8
  %m_cache.i = getelementptr inbounds i8, ptr %this, i64 32
  store ptr %7, ptr %m_cache.i, align 8
  tail call void @_ZN9act_cache5resetEv(ptr noundef nonnull align 8 dereferenceable(92) %7)
  %m_proof_gen.i = getelementptr inbounds i8, ptr %this, i64 16
  %8 = load i8, ptr %m_proof_gen.i, align 8
  %9 = and i8 %8, 1
  %tobool.not.i5 = icmp eq i8 %9, 0
  br i1 %tobool.not.i5, label %_ZN13rewriter_core11reset_cacheEv.exit, label %if.then.i

if.then.i:                                        ; preds = %if.end
  %m_cache_pr_stack.i = getelementptr inbounds i8, ptr %this, i64 64
  %10 = load ptr, ptr %m_cache_pr_stack.i, align 8
  %11 = load ptr, ptr %10, align 8
  %m_cache_pr.i = getelementptr inbounds i8, ptr %this, i64 72
  store ptr %11, ptr %m_cache_pr.i, align 8
  tail call void @_ZN9act_cache5resetEv(ptr noundef nonnull align 8 dereferenceable(92) %11)
  br label %_ZN13rewriter_core11reset_cacheEv.exit

_ZN13rewriter_core11reset_cacheEv.exit:           ; preds = %if.end, %if.then.i
  %m_shift = getelementptr inbounds i8, ptr %this, i64 144
  store i32 %shift, ptr %m_shift, align 8
  tail call void @_ZN16var_shifter_core9main_loopEP4exprR7obj_refIS0_11ast_managerE(ptr noundef nonnull align 8 dereferenceable(144) %this, ptr noundef nonnull %t, ptr noundef nonnull align 8 dereferenceable(16) %r)
  br label %return

return:                                           ; preds = %_ZN13rewriter_core11reset_cacheEv.exit, %_ZN7obj_refI4expr11ast_managerEaSEPS0_.exit
  ret void
}